; Function Attrs: mustprogress uwtable
define void @_ZN7xgboost6metric12BinaryROCAUCEPKNS_7ContextENS_6common4SpanIKfLm18446744073709551615EEENS_6linalg10TensorViewIS6_Li1EEENS4_15OptionalWeightsE(ptr dead_on_unwind noalias writable sret(%"class.std::tuple") align 8 %0, ptr noundef %1, i64 %2, ptr %3, ptr noundef readonly byval(%"class.xgboost::linalg::TensorView") align 8 captures(none) %4, ptr noundef readonly byval(%"struct.xgboost::common::OptionalWeights") align 8 captures(none) %5) #4 personality ptr @__gxx_personality_v0 {
  %7 = alloca %"class.std::vector", align 8
  call void @llvm.lifetime.start.p0(i64 24, ptr nonnull %7) #14
  %8 = getelementptr inbounds nuw float, ptr %3, i64 %2
  call void @_ZN7xgboost6common7ArgSortImPKffSt7greaterIvEEESt6vectorIT_SaIS7_EEPKNS_7ContextET0_SD_T2_(ptr dead_on_unwind nonnull writable sret(%"class.std::vector") align 8 %7, ptr noundef %1, ptr noundef %3, ptr noundef %8)
  invoke void @_ZN7xgboost6metric9BinaryAUCIRFdddddEEESt5tupleIJdddEENS_6common4SpanIKfLm18446744073709551615EEENS_6linalg10TensorViewIS8_Li1EEENS6_15OptionalWeightsERKSt6vectorImSaImEEOT_(ptr dead_on_unwind writable sret(%"class.std::tuple") align 8 %0, i64 %2, ptr %3, ptr noundef nonnull byval(%"class.xgboost::linalg::TensorView") align 8 %4, ptr noundef nonnull byval(%"struct.xgboost::common::OptionalWeights") align 8 %5, ptr noundef nonnull align 8 dereferenceable(24) %7, ptr noundef nonnull @_ZN7xgboost6metric13TrapezoidAreaEdddd)
          to label %9 unwind label %17

9:                                                ; preds = %6
  %10 = load ptr, ptr %7, align 8, !tbaa !3
  %.not.i.i.i = icmp eq ptr %10, null
  br i1 %.not.i.i.i, label %_ZNSt6vectorImSaImEED2Ev.exit, label %11

11:                                               ; preds = %9
  %12 = getelementptr inbounds nuw i8, ptr %7, i64 16
  %13 = load ptr, ptr %12, align 8, !tbaa !9
  %14 = ptrtoint ptr %13 to i64
  %15 = ptrtoint ptr %10 to i64
  %16 = sub i64 %14, %15
  call void @_ZdlPvm(ptr noundef nonnull %10, i64 noundef %16) #35
  br label %_ZNSt6vectorImSaImEED2Ev.exit

_ZNSt6vectorImSaImEED2Ev.exit:                    ; preds = %9, %11
  call void @llvm.lifetime.end.p0(i64 24, ptr nonnull %7) #14
  ret void

17:                                               ; preds = %6
  %18 = landingpad { ptr, i32 }
          cleanup
  %19 = load ptr, ptr %7, align 8, !tbaa !3
  %.not.i.i.i2 = icmp eq ptr %19, null
  br i1 %.not.i.i.i2, label %_ZNSt6vectorImSaImEED2Ev.exit3, label %20

20:                                               ; preds = %17
  %21 = getelementptr inbounds nuw i8, ptr %7, i64 16
  %22 = load ptr, ptr %21, align 8, !tbaa !9
  %23 = ptrtoint ptr %22 to i64
  %24 = ptrtoint ptr %19 to i64
  %25 = sub i64 %23, %24
  call void @_ZdlPvm(ptr noundef nonnull %19, i64 noundef %25) #35
  br label %_ZNSt6vectorImSaImEED2Ev.exit3

_ZNSt6vectorImSaImEED2Ev.exit3:                   ; preds = %17, %20
  call void @llvm.lifetime.end.p0(i64 24, ptr nonnull %7) #14
  resume { ptr, i32 } %18
}